
Allocating common symbols
Common symbol       size              file

gdt_table           0x100             bin/kernel.o
handle_table        0xc00             bin/kernel.o
idt_ptr             0x6               bin/kernel.o
linear_space_hash   0x1c              bin/kernel.o
page_count          0x4               bin/kernel.o
page_block_base     0x6000            bin/kernel.o
handle_ret_addr     0x4               bin/kernel.o
zone                0x90              bin/kernel.o
linear_space_base   0x1000            bin/kernel.o
kernel_mem_size     0x4               bin/kernel.o
phypage_base        0x4               bin/kernel.o
free_items          0x1000            bin/kernel.o
tss                 0x6c              bin/kernel.o
handle_err_code     0x4               bin/kernel.o
page_block_hash     0x1c              bin/kernel.o
gdt_ptr             0x6               bin/kernel.o
kernel_space        0x18              bin/kernel.o
tss_sel             0x2               bin/kernel.o
used_list           0x8               bin/kernel.o
idt_table           0x800             bin/kernel.o
free_list           0x8               bin/kernel.o

Discarded input sections

 .eh_frame      0x0000000000000000      0x850 bin/kernel.o
 .comment       0x0000000000000000      0x1d9 bin/kernel.o
 .eh_frame      0x0000000000000000      0x3e4 bin/lib.o
 .comment       0x0000000000000000       0xd7 bin/lib.o

Memory Configuration

Name             Origin             Length             Attributes
*default*        0x0000000000000000 0xffffffffffffffff

Linker script and memory map


.text           0x0000000000100000     0x23bf
                0x0000000000100000                _text = ABSOLUTE (.)
 *(.text)
 .text          0x0000000000100000     0x1980 bin/kernel.o
                0x0000000000100000                _start
                0x000000000010003c                loop
                0x0000000000100044                memory_init
                0x0000000000100255                memory_alloc
                0x0000000000100363                memory_free
                0x0000000000100405                memory_merger
                0x0000000000100490                arch_init
                0x00000000001004ac                desc_create
                0x000000000010052f                gate_create
                0x0000000000100592                gdt_add
                0x00000000001005ec                gdt_remove
                0x0000000000100606                gdt_set
                0x000000000010062c                gdt_get
                0x000000000010064a                gdt_load
                0x000000000010067f                idt_set
                0x000000000010069b                idt_get
                0x00000000001006b9                idt_init_call
                0x0000000000100715                idt_init_intr
                0x0000000000100771                idt_init_trap
                0x00000000001007cd                idt_init_task
                0x0000000000100829                idt_load
                0x000000000010085e                tss_load
                0x0000000000100874                gdt_init
                0x00000000001009b0                tss_init
                0x0000000000100a40                idt_init
                0x0000000000100a45                intr_handle
                0x0000000000100a4a                exception_handle
                0x0000000000100a98                init_8259A
                0x0000000000100b68                disable_irq
                0x0000000000100bfd                enable_irq
                0x0000000000100c98                page_init
                0x0000000000100e64                buddy_init
                0x0000000000100f73                page_search
                0x0000000000100fba                page_alloc
                0x00000000001010c0                page_free
                0x0000000000101226                page_is_buddy
                0x0000000000101261                alloc
                0x00000000001012ae                free
                0x000000000010134a                linear_space_create
                0x00000000001013c9                mod_addr_room_alloc
                0x0000000000101422                mod_addr_room_add
                0x0000000000101533                mod_addr_room_del
                0x0000000000101572                mod_addr_room_switch
                0x0000000000101868                new
                0x0000000000101949                delete
 .text          0x0000000000101980      0xa3f bin/lib.o
                0x0000000000101980                memset
                0x0000000000101998                memcpy
                0x00000000001019cd                memcmp
                0x0000000000101a19                strcpy
                0x0000000000101a52                strcat
                0x0000000000101a9c                list_init
                0x0000000000101ab8                list_add
                0x0000000000101b07                list_addtail
                0x0000000000101b53                list_search
                0x0000000000101b9b                list_insert
                0x0000000000101bf0                list_unlink
                0x0000000000101c29                list_delete
                0x0000000000101c63                list_empty
                0x0000000000101cd8                itoa
                0x0000000000101f00                dbcd_to_str
                0x0000000000101f34                dbcd_to_int
                0x0000000000102188                hash_create
                0x000000000010223e                hash_set
                0x0000000000102296                hash_get
                0x0000000000102301                hash_del
                0x000000000010236c                hash_getaddr

.rel.dyn        0x00000000001023c0        0x0
 .rel.iplt      0x0000000000000000        0x0 bin/kernel.o
 .rel.text      0x0000000000000000        0x0 bin/kernel.o

.data           0x00000000001023c0        0x0
                0x00000000001023c0                _data = ABSOLUTE (.)
 *(.data .rodata)
 .data          0x00000000001023c0        0x0 bin/kernel.o
 .data          0x00000000001023c0        0x0 bin/lib.o

.igot.plt       0x00000000001023c0        0x0
 .igot.plt      0x0000000000000000        0x0 bin/kernel.o

.bss            0x00000000001023c0     0x96e8
                0x00000000001023c0                _bss = ABSOLUTE (.)
 *(.bss)
 .bss           0x00000000001023c0        0x0 bin/kernel.o
 .bss           0x00000000001023c0        0x0 bin/lib.o
 *(COMMON)
 COMMON         0x00000000001023c0     0x96e8 bin/kernel.o
                0x00000000001023c0                gdt_table
                0x00000000001024c0                handle_table
                0x00000000001030c0                idt_ptr
                0x00000000001030c8                linear_space_hash
                0x00000000001030e4                page_count
                0x0000000000103100                page_block_base
                0x0000000000109100                handle_ret_addr
                0x0000000000109120                zone
                0x00000000001091c0                linear_space_base
                0x000000000010a1c0                kernel_mem_size
                0x000000000010a1c4                phypage_base
                0x000000000010a1e0                free_items
                0x000000000010b1e0                tss
                0x000000000010b24c                handle_err_code
                0x000000000010b250                page_block_hash
                0x000000000010b26c                gdt_ptr
                0x000000000010b274                kernel_space
                0x000000000010b28c                tss_sel
                0x000000000010b290                used_list
                0x000000000010b2a0                idt_table
                0x000000000010baa0                free_list
                0x000000000010baa8                _end = ABSOLUTE (.)

.bios           0x0000000000000000     0x1300
 *(bios)
 bios           0x0000000000000000     0x1300 bin/kernel.o
                0x0000000000001000                mem_info
                0x0000000000001200                mem_mcr_number
                0x0000000000001204                mem_size
                0x0000000000001208                mem_used_map
                0x000000000000120c                mem_used_map_max
                0x0000000000001300                cmos_info

/DISCARD/
 *(.symtab)
 *(.comment)
 *(.eh_frame)
 *(.iplt)
 *(.shstrtab)
 *(.strtab)
 *(.shstrtab)
 *(.rel.dyn)
 *(.shstrtab)
LOAD bin/kernel.o
LOAD bin/lib.o
OUTPUT(bin/kernel.bin elf32-i386)

.note.GNU-stack
                0x0000000000000000        0x0
 .note.GNU-stack
                0x0000000000000000        0x0 bin/kernel.o
 .note.GNU-stack
                0x0000000000000000        0x0 bin/lib.o
